target datalayout = "e-m:e-p270:32:32-p271:32:32-p272:64:64-i64:64-i128:128-f80:128-n8:16:32:64-S128"
target triple = "x86_64-pc-linux-gnu"

%struct.Gia_Man_t_ = type { ptr, ptr, i32, i32, i32, i32, ptr, ptr, i32, i32, i32, ptr, ptr, %struct.Vec_Int_t_, %struct.Vec_Int_t_, i32, i32, i32, %struct.Vec_Int_t_, ptr, ptr, ptr, i32, i32, i32, i32, ptr, ptr, ptr, ptr, ptr, i32, i32, ptr, i32, ptr, ptr, ptr, ptr, ptr, ptr, ptr, ptr, ptr, ptr, ptr, ptr, ptr, ptr, ptr, ptr, ptr, ptr, %struct.Vec_Int_t_, %struct.Vec_Int_t_, ptr, ptr, ptr, ptr, ptr, ptr, ptr, ptr, ptr, ptr, ptr, ptr, ptr, ptr, ptr, ptr, ptr, ptr, ptr, ptr, ptr, i32, float, float, ptr, ptr, i32, ptr, ptr, ptr, ptr, ptr, ptr, ptr, ptr, ptr, ptr, ptr, ptr, ptr, ptr, ptr, i64, i64, ptr, ptr, i32, i32, i32, i32, i32, i32, i32, i32, i32, i32, i32, i32, ptr, ptr, ptr, ptr, ptr, ptr, ptr, ptr, i32, i32, i32, ptr, i32, i32, ptr, ptr, ptr, ptr, ptr, ptr, i32, i32, ptr, %struct.Vec_Int_t_, %struct.Vec_Int_t_, %struct.Vec_Int_t_, ptr, ptr, ptr }
%struct.Vec_Int_t_ = type { i32, i32, ptr }

@__const.Gia_ManTestOnePair.Lits = private unnamed_addr constant [2 x i32] [i32 1, i32 0], align 4

; Function Attrs: nounwind uwtable
define internal ptr @Vec_IntAlloc(i32 noundef %0) #0 {
  %2 = alloca i32, align 4
  %3 = alloca ptr, align 8
  store i32 %0, ptr %2, align 4
  %4 = call noalias ptr @malloc(i64 noundef 16) #11
  store ptr %4, ptr %3, align 8
  %5 = load i32, ptr %2, align 4
  %6 = icmp sgt i32 %5, 0
  br i1 %6, label %7, label %11

7:                                                ; preds = %1
  %8 = load i32, ptr %2, align 4
  %9 = icmp slt i32 %8, 16
  br i1 %9, label %10, label %11

10:                                               ; preds = %7
  store i32 16, ptr %2, align 4
  br label %11

11:                                               ; preds = %10, %7, %1
  %12 = load ptr, ptr %3, align 8
  %13 = getelementptr inbounds %struct.Vec_Int_t_, ptr %12, i32 0, i32 1
  store i32 0, ptr %13, align 4
  %14 = load i32, ptr %2, align 4
  %15 = load ptr, ptr %3, align 8
  %16 = getelementptr inbounds %struct.Vec_Int_t_, ptr %15, i32 0, i32 0
  store i32 %14, ptr %16, align 8
  %17 = load ptr, ptr %3, align 8
  %18 = getelementptr inbounds %struct.Vec_Int_t_, ptr %17, i32 0, i32 0
  %19 = load i32, ptr %18, align 8
  %20 = icmp ne i32 %19, 0
  br i1 %20, label %21, label %28

21:                                               ; preds = %11
  %22 = load ptr, ptr %3, align 8
  %23 = getelementptr inbounds %struct.Vec_Int_t_, ptr %22, i32 0, i32 0
  %24 = load i32, ptr %23, align 8
  %25 = sext i32 %24 to i64
  %26 = mul i64 4, %25
  %27 = call noalias ptr @malloc(i64 noundef %26) #11
  br label %29

28:                                               ; preds = %11
  br label %29

29:                                               ; preds = %28, %21
  %30 = phi ptr [ %27, %21 ], [ null, %28 ]
  %31 = load ptr, ptr %3, align 8
  %32 = getelementptr inbounds %struct.Vec_Int_t_, ptr %31, i32 0, i32 2
  store ptr %30, ptr %32, align 8
  %33 = load ptr, ptr %3, align 8
  ret ptr %33
}

; Function Attrs: nounwind uwtable
define internal void @Vec_IntFree(ptr noundef %0) #0 {
  %2 = alloca ptr, align 8
  store ptr %0, ptr %2, align 8
  %3 = load ptr, ptr %2, align 8
  %4 = getelementptr inbounds %struct.Vec_Int_t_, ptr %3, i32 0, i32 2
  %5 = load ptr, ptr %4, align 8
  %6 = icmp ne ptr %5, null
  br i1 %6, label %7, label %13

7:                                                ; preds = %1
  %8 = load ptr, ptr %2, align 8
  %9 = getelementptr inbounds %struct.Vec_Int_t_, ptr %8, i32 0, i32 2
  %10 = load ptr, ptr %9, align 8
  call void @free(ptr noundef %10) #12
  %11 = load ptr, ptr %2, align 8
  %12 = getelementptr inbounds %struct.Vec_Int_t_, ptr %11, i32 0, i32 2
  store ptr null, ptr %12, align 8
  br label %14

13:                                               ; preds = %1
  br label %14

14:                                               ; preds = %13, %7
  %15 = load ptr, ptr %2, align 8
  %16 = icmp ne ptr %15, null
  br i1 %16, label %17, label %19

17:                                               ; preds = %14
  %18 = load ptr, ptr %2, align 8
  call void @free(ptr noundef %18) #12
  store ptr null, ptr %2, align 8
  br label %20

19:                                               ; preds = %14
  br label %20

20:                                               ; preds = %19, %17
  ret void
}

; Function Attrs: nounwind uwtable
define internal i32 @Abc_LitNot(i32 noundef %0) #0 {
  %2 = alloca i32, align 4
  store i32 %0, ptr %2, align 4
  %3 = load i32, ptr %2, align 4
  %4 = xor i32 %3, 1
  ret i32 %4
}

; Function Attrs: nounwind uwtable
define internal i32 @Abc_Var2Lit(i32 noundef %0, i32 noundef %1) #0 {
  %3 = alloca i32, align 4
  %4 = alloca i32, align 4
  store i32 %0, ptr %3, align 4
  store i32 %1, ptr %4, align 4
  %5 = load i32, ptr %3, align 4
  %6 = load i32, ptr %3, align 4
  %7 = add nsw i32 %5, %6
  %8 = load i32, ptr %4, align 4
  %9 = add nsw i32 %7, %8
  ret i32 %9
}

; Function Attrs: nounwind uwtable
define internal i32 @Vec_IntEntry(ptr noundef %0, i32 noundef %1) #0 {
  %3 = alloca ptr, align 8
  %4 = alloca i32, align 4
  store ptr %0, ptr %3, align 8
  store i32 %1, ptr %4, align 4
  %5 = load ptr, ptr %3, align 8
  %6 = getelementptr inbounds %struct.Vec_Int_t_, ptr %5, i32 0, i32 2
  %7 = load ptr, ptr %6, align 8
  %8 = load i32, ptr %4, align 4
  %9 = sext i32 %8 to i64
  %10 = getelementptr inbounds i32, ptr %7, i64 %9
  %11 = load i32, ptr %10, align 4
  ret i32 %11
}

; Function Attrs: nounwind uwtable
define internal void @Vec_IntWriteEntry(ptr noundef %0, i32 noundef %1, i32 noundef %2) #0 {
  %4 = alloca ptr, align 8
  %5 = alloca i32, align 4
  %6 = alloca i32, align 4
  store ptr %0, ptr %4, align 8
  store i32 %1, ptr %5, align 4
  store i32 %2, ptr %6, align 4
  %7 = load i32, ptr %6, align 4
  %8 = load ptr, ptr %4, align 8
  %9 = getelementptr inbounds %struct.Vec_Int_t_, ptr %8, i32 0, i32 2
  %10 = load ptr, ptr %9, align 8
  %11 = load i32, ptr %5, align 4
  %12 = sext i32 %11 to i64
  %13 = getelementptr inbounds i32, ptr %10, i64 %12
  store i32 %7, ptr %13, align 4
  ret void
}

; Function Attrs: nounwind uwtable
define internal ptr @Vec_IntStartFull(i32 noundef %0) #0 {
  %2 = alloca i32, align 4
  %3 = alloca ptr, align 8
  store i32 %0, ptr %2, align 4
  %4 = load i32, ptr %2, align 4
  %5 = call ptr @Vec_IntAlloc(i32 noundef %4)
  store ptr %5, ptr %3, align 8
  %6 = load i32, ptr %2, align 4
  %7 = load ptr, ptr %3, align 8
  %8 = getelementptr inbounds %struct.Vec_Int_t_, ptr %7, i32 0, i32 1
  store i32 %6, ptr %8, align 4
  %9 = load ptr, ptr %3, align 8
  %10 = getelementptr inbounds %struct.Vec_Int_t_, ptr %9, i32 0, i32 2
  %11 = load ptr, ptr %10, align 8
  %12 = icmp ne ptr %11, null
  br i1 %12, label %13, label %20

13:                                               ; preds = %1
  %14 = load ptr, ptr %3, align 8
  %15 = getelementptr inbounds %struct.Vec_Int_t_, ptr %14, i32 0, i32 2
  %16 = load ptr, ptr %15, align 8
  %17 = load i32, ptr %2, align 4
  %18 = sext i32 %17 to i64
  %19 = mul i64 4, %18
  call void @llvm.memset.p0.i64(ptr align 4 %16, i8 -1, i64 %19, i1 false)
  br label %20

20:                                               ; preds = %13, %1
  %21 = load ptr, ptr %3, align 8
  ret ptr %21
}

; Function Attrs: nounwind uwtable
define internal i32 @Gia_ManObjNum(ptr noundef %0) #0 {
  %2 = alloca ptr, align 8
  store ptr %0, ptr %2, align 8
  %3 = load ptr, ptr %2, align 8
  %4 = getelementptr inbounds %struct.Gia_Man_t_, ptr %3, i32 0, i32 4
  %5 = load i32, ptr %4, align 8
  ret i32 %5
}

; Function Attrs: nounwind uwtable
define i32 @Gia_ManTestOnePair(ptr noundef %0, i32 noundef %1, i32 noundef %2, i32 noundef %3) #0 {
  %5 = alloca ptr, align 8
  %6 = alloca i32, align 4
  %7 = alloca i32, align 4
  %8 = alloca i32, align 4
  %9 = alloca [2 x i32], align 4
  %10 = alloca i32, align 4
  %11 = alloca ptr, align 8
  %12 = alloca ptr, align 8
  store ptr %0, ptr %5, align 8
  store i32 %1, ptr %6, align 4
  store i32 %2, ptr %7, align 4
  store i32 %3, ptr %8, align 4
  call void @llvm.memcpy.p0.p0.i64(ptr align 4 %9, ptr align 4 @__const.Gia_ManTestOnePair.Lits, i64 8, i1 false)
  %13 = call ptr @sat_solver_new()
  store ptr %13, ptr %11, align 8
  %14 = load ptr, ptr %5, align 8
  %15 = call i32 @Gia_ManObjNum(ptr noundef %14)
  %16 = call ptr @Vec_IntStartFull(i32 noundef %15)
  store ptr %16, ptr %12, align 8
  %17 = load ptr, ptr %12, align 8
  %18 = load ptr, ptr %11, align 8
  %19 = call i32 @sat_solver_addvar(ptr noundef %18)
  call void @Vec_IntWriteEntry(ptr noundef %17, i32 noundef 0, i32 noundef %19)
  %20 = load ptr, ptr %11, align 8
  %21 = getelementptr inbounds [2 x i32], ptr %9, i64 0, i64 0
  %22 = getelementptr inbounds [2 x i32], ptr %9, i64 0, i64 0
  %23 = getelementptr inbounds i32, ptr %22, i64 1
  %24 = call i32 @sat_solver_addclause(ptr noundef %20, ptr noundef %21, ptr noundef %23)
  %25 = load ptr, ptr %11, align 8
  %26 = load ptr, ptr %5, align 8
  %27 = load i32, ptr %6, align 4
  %28 = load ptr, ptr %12, align 8
  %29 = call i32 @Gia_ManTestOnePair_rec(ptr noundef %25, ptr noundef %26, i32 noundef %27, ptr noundef %28)
  %30 = load ptr, ptr %11, align 8
  %31 = load ptr, ptr %5, align 8
  %32 = load i32, ptr %7, align 4
  %33 = load ptr, ptr %12, align 8
  %34 = call i32 @Gia_ManTestOnePair_rec(ptr noundef %30, ptr noundef %31, i32 noundef %32, ptr noundef %33)
  %35 = load ptr, ptr %12, align 8
  %36 = load i32, ptr %6, align 4
  %37 = call i32 @Vec_IntEntry(ptr noundef %35, i32 noundef %36)
  %38 = call i32 @Abc_Var2Lit(i32 noundef %37, i32 noundef 1)
  %39 = getelementptr inbounds [2 x i32], ptr %9, i64 0, i64 0
  store i32 %38, ptr %39, align 4
  %40 = load ptr, ptr %12, align 8
  %41 = load i32, ptr %7, align 4
  %42 = call i32 @Vec_IntEntry(ptr noundef %40, i32 noundef %41)
  %43 = load i32, ptr %8, align 4
  %44 = call i32 @Abc_Var2Lit(i32 noundef %42, i32 noundef %43)
  %45 = getelementptr inbounds [2 x i32], ptr %9, i64 0, i64 1
  store i32 %44, ptr %45, align 4
  %46 = load ptr, ptr %11, align 8
  %47 = getelementptr inbounds [2 x i32], ptr %9, i64 0, i64 0
  %48 = getelementptr inbounds [2 x i32], ptr %9, i64 0, i64 0
  %49 = getelementptr inbounds i32, ptr %48, i64 2
  %50 = call i32 @sat_solver_solve(ptr noundef %46, ptr noundef %47, ptr noundef %49, i64 noundef 0, i64 noundef 0, i64 noundef 0, i64 noundef 0)
  store i32 %50, ptr %10, align 4
  %51 = load i32, ptr %10, align 4
  %52 = icmp eq i32 %51, -1
  br i1 %52, label %53, label %67

53:                                               ; preds = %4
  %54 = getelementptr inbounds [2 x i32], ptr %9, i64 0, i64 0
  %55 = load i32, ptr %54, align 4
  %56 = call i32 @Abc_LitNot(i32 noundef %55)
  %57 = getelementptr inbounds [2 x i32], ptr %9, i64 0, i64 0
  store i32 %56, ptr %57, align 4
  %58 = getelementptr inbounds [2 x i32], ptr %9, i64 0, i64 1
  %59 = load i32, ptr %58, align 4
  %60 = call i32 @Abc_LitNot(i32 noundef %59)
  %61 = getelementptr inbounds [2 x i32], ptr %9, i64 0, i64 1
  store i32 %60, ptr %61, align 4
  %62 = load ptr, ptr %11, align 8
  %63 = getelementptr inbounds [2 x i32], ptr %9, i64 0, i64 0
  %64 = getelementptr inbounds [2 x i32], ptr %9, i64 0, i64 0
  %65 = getelementptr inbounds i32, ptr %64, i64 2
  %66 = call i32 @sat_solver_solve(ptr noundef %62, ptr noundef %63, ptr noundef %65, i64 noundef 0, i64 noundef 0, i64 noundef 0, i64 noundef 0)
  store i32 %66, ptr %10, align 4
  br label %67

67:                                               ; preds = %53, %4
  %68 = load ptr, ptr %12, align 8
  call void @Vec_IntFree(ptr noundef %68)
  %69 = load ptr, ptr %11, align 8
  call void @sat_solver_delete(ptr noundef %69)
  %70 = load i32, ptr %10, align 4
  ret i32 %70
}