; Function Attrs: nounwind uwtable
define i32 @Gia_ManTestOnePair(ptr noundef %0, i32 noundef %1, i32 noundef %2, i32 noundef %3) local_unnamed_addr #3 {
  %5 = alloca [2 x i32], align 8
  store i64 1, ptr %5, align 8
  %6 = tail call ptr @sat_solver_new() #19
  %7 = getelementptr i8, ptr %0, i64 24
  %.val24 = load i32, ptr %7, align 8
  %8 = tail call noalias dereferenceable_or_null(16) ptr @malloc(i64 noundef 16) #20
  %9 = add i32 %.val24, -1
  %or.cond.i.i = icmp ult i32 %9, 15
  %spec.store.select.i.i = select i1 %or.cond.i.i, i32 16, i32 %.val24
  %10 = getelementptr inbounds nuw i8, ptr %8, i64 4
  store i32 %spec.store.select.i.i, ptr %8, align 8
  %.not.i.i = icmp eq i32 %spec.store.select.i.i, 0
  br i1 %.not.i.i, label %Vec_IntAlloc.exit.thread.i, label %Vec_IntAlloc.exit.i

Vec_IntAlloc.exit.thread.i:                       ; preds = %4
  %11 = getelementptr inbounds nuw i8, ptr %8, i64 8
  store ptr null, ptr %11, align 8
  store i32 %.val24, ptr %10, align 4
  br label %Vec_IntStartFull.exit

Vec_IntAlloc.exit.i:                              ; preds = %4
  %12 = sext i32 %spec.store.select.i.i to i64
  %13 = shl nsw i64 %12, 2
  %14 = tail call noalias ptr @malloc(i64 noundef %13) #20
  %15 = getelementptr inbounds nuw i8, ptr %8, i64 8
  store ptr %14, ptr %15, align 8
  store i32 %.val24, ptr %10, align 4
  %.not.i = icmp eq ptr %14, null
  br i1 %.not.i, label %Vec_IntStartFull.exit, label %16

16:                                               ; preds = %Vec_IntAlloc.exit.i
  %17 = sext i32 %.val24 to i64
  %18 = shl nsw i64 %17, 2
  tail call void @llvm.memset.p0.i64(ptr nonnull align 4 %14, i8 -1, i64 %18, i1 false)
  br label %Vec_IntStartFull.exit

Vec_IntStartFull.exit:                            ; preds = %Vec_IntAlloc.exit.thread.i, %Vec_IntAlloc.exit.i, %16
  %.val25 = phi ptr [ null, %Vec_IntAlloc.exit.thread.i ], [ null, %Vec_IntAlloc.exit.i ], [ %14, %16 ]
  %19 = tail call i32 @sat_solver_addvar(ptr noundef %6) #19
  %20 = getelementptr i8, ptr %8, i64 8
  store i32 %19, ptr %.val25, align 4
  %21 = getelementptr inbounds nuw i8, ptr %5, i64 4
  %22 = call i32 @sat_solver_addclause(ptr noundef %6, ptr noundef nonnull %5, ptr noundef nonnull %21) #19
  %23 = call fastcc i32 @Gia_ManTestOnePair_rec(ptr noundef %6, ptr noundef nonnull %0, i32 noundef %1, ptr noundef nonnull %8)
  %24 = call fastcc i32 @Gia_ManTestOnePair_rec(ptr noundef %6, ptr noundef nonnull %0, i32 noundef %2, ptr noundef nonnull %8)
  %.val23 = load ptr, ptr %20, align 8
  %25 = sext i32 %1 to i64
  %26 = getelementptr inbounds i32, ptr %.val23, i64 %25
  %27 = load i32, ptr %26, align 4
  %28 = shl nsw i32 %27, 1
  %29 = or disjoint i32 %28, 1
  store i32 %29, ptr %5, align 8
  %30 = sext i32 %2 to i64
  %31 = getelementptr inbounds i32, ptr %.val23, i64 %30
  %32 = load i32, ptr %31, align 4
  %33 = shl nsw i32 %32, 1
  %34 = add nsw i32 %33, %3
  store i32 %34, ptr %21, align 4
  %35 = getelementptr inbounds nuw i8, ptr %5, i64 8
  %36 = call i32 @sat_solver_solve(ptr noundef %6, ptr noundef nonnull %5, ptr noundef nonnull %35, i64 noundef 0, i64 noundef 0, i64 noundef 0, i64 noundef 0) #19
  %37 = icmp eq i32 %36, -1
  br i1 %37, label %38, label %44

38:                                               ; preds = %Vec_IntStartFull.exit
  %39 = load i32, ptr %5, align 8
  %40 = xor i32 %39, 1
  store i32 %40, ptr %5, align 8
  %41 = load i32, ptr %21, align 4
  %42 = xor i32 %41, 1
  store i32 %42, ptr %21, align 4
  %43 = call i32 @sat_solver_solve(ptr noundef %6, ptr noundef nonnull %5, ptr noundef nonnull %35, i64 noundef 0, i64 noundef 0, i64 noundef 0, i64 noundef 0) #19
  br label %44

44:                                               ; preds = %38, %Vec_IntStartFull.exit
  %.0 = phi i32 [ %43, %38 ], [ %36, %Vec_IntStartFull.exit ]
  %45 = load ptr, ptr %20, align 8
  %.not.i26 = icmp eq ptr %45, null
  br i1 %.not.i26, label %Vec_IntFree.exit, label %46

46:                                               ; preds = %44
  call void @free(ptr noundef nonnull %45) #19
  br label %Vec_IntFree.exit

Vec_IntFree.exit:                                 ; preds = %44, %46
  call void @free(ptr noundef nonnull %8) #19
  call void @sat_solver_delete(ptr noundef %6) #19
  ret i32 %.0
}